target datalayout = "e-m:e-p270:32:32-p271:32:32-p272:64:64-i64:64-i128:128-f80:128-n8:16:32:64-S128"
target triple = "x86_64-pc-linux-gnu"

%struct.PutBitContext = type { i32, i32, ptr, ptr, ptr }

@.str.10 = private unnamed_addr constant [43 x i8] c"Internal error, put_bits buffer too small\0A\00", align 1

; Function Attrs: alwaysinline nounwind willreturn memory(none) uwtable
define internal i32 @av_bswap32(i32 noundef %0) #7 {
  %2 = alloca i32, align 4
  store i32 %0, ptr %2, align 4, !tbaa !45
  %3 = load i32, ptr %2, align 4, !tbaa !45
  %4 = shl i32 %3, 8
  %5 = and i32 %4, 65280
  %6 = load i32, ptr %2, align 4, !tbaa !45
  %7 = lshr i32 %6, 8
  %8 = and i32 %7, 255
  %9 = or i32 %5, %8
  %10 = shl i32 %9, 16
  %11 = load i32, ptr %2, align 4, !tbaa !45
  %12 = lshr i32 %11, 16
  %13 = shl i32 %12, 8
  %14 = and i32 %13, 65280
  %15 = load i32, ptr %2, align 4, !tbaa !45
  %16 = lshr i32 %15, 16
  %17 = lshr i32 %16, 8
  %18 = and i32 %17, 255
  %19 = or i32 %14, %18
  %20 = or i32 %10, %19
  ret i32 %20
}

; Function Attrs: alwaysinline nounwind willreturn memory(none) uwtable
define internal i32 @av_zero_extend_c(i32 noundef %0, i32 noundef %1) #7 {
  %3 = alloca i32, align 4
  %4 = alloca i32, align 4
  store i32 %0, ptr %3, align 4, !tbaa !45
  store i32 %1, ptr %4, align 4, !tbaa !45
  %5 = load i32, ptr %3, align 4, !tbaa !45
  %6 = load i32, ptr %4, align 4, !tbaa !45
  %7 = shl i32 1, %6
  %8 = sub i32 %7, 1
  %9 = and i32 %5, %8
  ret i32 %9
}

; Function Attrs: inlinehint nounwind uwtable
define internal void @put_bits_no_assert(ptr noundef %0, i32 noundef %1, i32 noundef %2) #5 {
  %4 = alloca ptr, align 8
  %5 = alloca i32, align 4
  %6 = alloca i32, align 4
  %7 = alloca i32, align 4
  %8 = alloca i32, align 4
  store ptr %0, ptr %4, align 8, !tbaa !68
  store i32 %1, ptr %5, align 4, !tbaa !45
  store i32 %2, ptr %6, align 4, !tbaa !45
  call void @llvm.lifetime.start.p0(i64 4, ptr %7) #10
  call void @llvm.lifetime.start.p0(i64 4, ptr %8) #10
  %9 = load ptr, ptr %4, align 8, !tbaa !68
  %10 = getelementptr inbounds nuw %struct.PutBitContext, ptr %9, i32 0, i32 0
  %11 = load i32, ptr %10, align 8, !tbaa !73
  store i32 %11, ptr %7, align 4, !tbaa !45
  %12 = load ptr, ptr %4, align 8, !tbaa !68
  %13 = getelementptr inbounds nuw %struct.PutBitContext, ptr %12, i32 0, i32 1
  %14 = load i32, ptr %13, align 4, !tbaa !72
  store i32 %14, ptr %8, align 4, !tbaa !45
  %15 = load i32, ptr %5, align 4, !tbaa !45
  %16 = load i32, ptr %8, align 4, !tbaa !45
  %17 = icmp slt i32 %15, %16
  br i1 %17, label %18, label %27

18:                                               ; preds = %3
  %19 = load i32, ptr %7, align 4, !tbaa !45
  %20 = load i32, ptr %5, align 4, !tbaa !45
  %21 = shl i32 %19, %20
  %22 = load i32, ptr %6, align 4, !tbaa !45
  %23 = or i32 %21, %22
  store i32 %23, ptr %7, align 4, !tbaa !45
  %24 = load i32, ptr %5, align 4, !tbaa !45
  %25 = load i32, ptr %8, align 4, !tbaa !45
  %26 = sub nsw i32 %25, %24
  store i32 %26, ptr %8, align 4, !tbaa !45
  br label %65

27:                                               ; preds = %3
  %28 = load i32, ptr %8, align 4, !tbaa !45
  %29 = load i32, ptr %7, align 4, !tbaa !45
  %30 = shl i32 %29, %28
  store i32 %30, ptr %7, align 4, !tbaa !45
  %31 = load i32, ptr %6, align 4, !tbaa !45
  %32 = load i32, ptr %5, align 4, !tbaa !45
  %33 = load i32, ptr %8, align 4, !tbaa !45
  %34 = sub nsw i32 %32, %33
  %35 = lshr i32 %31, %34
  %36 = load i32, ptr %7, align 4, !tbaa !45
  %37 = or i32 %36, %35
  store i32 %37, ptr %7, align 4, !tbaa !45
  %38 = load ptr, ptr %4, align 8, !tbaa !68
  %39 = getelementptr inbounds nuw %struct.PutBitContext, ptr %38, i32 0, i32 4
  %40 = load ptr, ptr %39, align 8, !tbaa !70
  %41 = load ptr, ptr %4, align 8, !tbaa !68
  %42 = getelementptr inbounds nuw %struct.PutBitContext, ptr %41, i32 0, i32 3
  %43 = load ptr, ptr %42, align 8, !tbaa !71
  %44 = ptrtoint ptr %40 to i64
  %45 = ptrtoint ptr %43 to i64
  %46 = sub i64 %44, %45
  %47 = icmp uge i64 %46, 4
  br i1 %47, label %48, label %58

48:                                               ; preds = %27
  %49 = load i32, ptr %7, align 4, !tbaa !45
  %50 = call i32 @av_bswap32(i32 noundef %49) #11
  %51 = load ptr, ptr %4, align 8, !tbaa !68
  %52 = getelementptr inbounds nuw %struct.PutBitContext, ptr %51, i32 0, i32 3
  %53 = load ptr, ptr %52, align 8, !tbaa !71
  store i32 %50, ptr %53, align 1, !tbaa !50
  %54 = load ptr, ptr %4, align 8, !tbaa !68
  %55 = getelementptr inbounds nuw %struct.PutBitContext, ptr %54, i32 0, i32 3
  %56 = load ptr, ptr %55, align 8, !tbaa !71
  %57 = getelementptr inbounds nuw i8, ptr %56, i64 4
  store ptr %57, ptr %55, align 8, !tbaa !71
  br label %59

58:                                               ; preds = %27
  call void (ptr, i32, ptr, ...) @av_log(ptr noundef null, i32 noundef 16, ptr noundef @.str.10)
  br label %59

59:                                               ; preds = %58, %48
  %60 = load i32, ptr %5, align 4, !tbaa !45
  %61 = sub nsw i32 32, %60
  %62 = load i32, ptr %8, align 4, !tbaa !45
  %63 = add nsw i32 %62, %61
  store i32 %63, ptr %8, align 4, !tbaa !45
  %64 = load i32, ptr %6, align 4, !tbaa !45
  store i32 %64, ptr %7, align 4, !tbaa !45
  br label %65

65:                                               ; preds = %59, %18
  %66 = load i32, ptr %7, align 4, !tbaa !45
  %67 = load ptr, ptr %4, align 8, !tbaa !68
  %68 = getelementptr inbounds nuw %struct.PutBitContext, ptr %67, i32 0, i32 0
  store i32 %66, ptr %68, align 8, !tbaa !73
  %69 = load i32, ptr %8, align 4, !tbaa !45
  %70 = load ptr, ptr %4, align 8, !tbaa !68
  %71 = getelementptr inbounds nuw %struct.PutBitContext, ptr %70, i32 0, i32 1
  store i32 %69, ptr %71, align 4, !tbaa !72
  call void @llvm.lifetime.end.p0(i64 4, ptr %8) #10
  call void @llvm.lifetime.end.p0(i64 4, ptr %7) #10
  ret void
}

; Function Attrs: inlinehint nounwind uwtable
define internal void @put_sbits(ptr noundef %0, i32 noundef %1, i32 noundef %2) #5 {
  %4 = alloca ptr, align 8
  %5 = alloca i32, align 4
  %6 = alloca i32, align 4
  store ptr %0, ptr %4, align 8, !tbaa !68
  store i32 %1, ptr %5, align 4, !tbaa !45
  store i32 %2, ptr %6, align 4, !tbaa !45
  %7 = load ptr, ptr %4, align 8, !tbaa !68
  %8 = load i32, ptr %5, align 4, !tbaa !45
  %9 = load i32, ptr %6, align 4, !tbaa !45
  %10 = load i32, ptr %5, align 4, !tbaa !45
  %11 = call i32 @av_zero_extend_c(i32 noundef %9, i32 noundef %10) #11
  call void @put_bits(ptr noundef %7, i32 noundef %8, i32 noundef %11)
  ret void
}

; Function Attrs: inlinehint nounwind uwtable
define internal void @put_bits(ptr noundef %0, i32 noundef %1, i32 noundef %2) #5 {
  %4 = alloca ptr, align 8
  %5 = alloca i32, align 4
  %6 = alloca i32, align 4
  store ptr %0, ptr %4, align 8, !tbaa !68
  store i32 %1, ptr %5, align 4, !tbaa !45
  store i32 %2, ptr %6, align 4, !tbaa !45
  %7 = load ptr, ptr %4, align 8, !tbaa !68
  %8 = load i32, ptr %5, align 4, !tbaa !45
  %9 = load i32, ptr %6, align 4, !tbaa !45
  call void @put_bits_no_assert(ptr noundef %7, i32 noundef %8, i32 noundef %9)
  ret void
}

; Function Attrs: inlinehint nounwind uwtable
define internal void @set_ur_golomb_jpegls(ptr noundef %0, i32 noundef %1, i32 noundef %2, i32 noundef %3, i32 noundef %4) #5 {
  %6 = alloca ptr, align 8
  %7 = alloca i32, align 4
  %8 = alloca i32, align 4
  %9 = alloca i32, align 4
  %10 = alloca i32, align 4
  %11 = alloca i32, align 4
  store ptr %0, ptr %6, align 8, !tbaa !68
  store i32 %1, ptr %7, align 4, !tbaa !45
  store i32 %2, ptr %8, align 4, !tbaa !45
  store i32 %3, ptr %9, align 4, !tbaa !45
  store i32 %4, ptr %10, align 4, !tbaa !45
  call void @llvm.lifetime.start.p0(i64 4, ptr %11) #10
  %12 = load i32, ptr %7, align 4, !tbaa !45
  %13 = load i32, ptr %8, align 4, !tbaa !45
  %14 = ashr i32 %12, %13
  %15 = add nsw i32 %14, 1
  store i32 %15, ptr %11, align 4, !tbaa !45
  %16 = load i32, ptr %11, align 4, !tbaa !45
  %17 = load i32, ptr %9, align 4, !tbaa !45
  %18 = icmp slt i32 %16, %17
  br i1 %18, label %19, label %37

19:                                               ; preds = %5
  br label %20

20:                                               ; preds = %23, %19
  %21 = load i32, ptr %11, align 4, !tbaa !45
  %22 = icmp sgt i32 %21, 31
  br i1 %22, label %23, label %27

23:                                               ; preds = %20
  %24 = load ptr, ptr %6, align 8, !tbaa !68
  call void @put_bits(ptr noundef %24, i32 noundef 31, i32 noundef 0)
  %25 = load i32, ptr %11, align 4, !tbaa !45
  %26 = sub nsw i32 %25, 31
  store i32 %26, ptr %11, align 4, !tbaa !45
  br label %20, !llvm.loop !107

27:                                               ; preds = %20
  %28 = load ptr, ptr %6, align 8, !tbaa !68
  %29 = load i32, ptr %11, align 4, !tbaa !45
  call void @put_bits(ptr noundef %28, i32 noundef %29, i32 noundef 1)
  %30 = load i32, ptr %8, align 4, !tbaa !45
  %31 = icmp ne i32 %30, 0
  br i1 %31, label %32, label %36

32:                                               ; preds = %27
  %33 = load ptr, ptr %6, align 8, !tbaa !68
  %34 = load i32, ptr %8, align 4, !tbaa !45
  %35 = load i32, ptr %7, align 4, !tbaa !45
  call void @put_sbits(ptr noundef %33, i32 noundef %34, i32 noundef %35)
  br label %36

36:                                               ; preds = %32, %27
  br label %52

37:                                               ; preds = %5
  br label %38

38:                                               ; preds = %41, %37
  %39 = load i32, ptr %9, align 4, !tbaa !45
  %40 = icmp sgt i32 %39, 31
  br i1 %40, label %41, label %45

41:                                               ; preds = %38
  %42 = load ptr, ptr %6, align 8, !tbaa !68
  call void @put_bits(ptr noundef %42, i32 noundef 31, i32 noundef 0)
  %43 = load i32, ptr %9, align 4, !tbaa !45
  %44 = sub nsw i32 %43, 31
  store i32 %44, ptr %9, align 4, !tbaa !45
  br label %38, !llvm.loop !108

45:                                               ; preds = %38
  %46 = load ptr, ptr %6, align 8, !tbaa !68
  %47 = load i32, ptr %9, align 4, !tbaa !45
  call void @put_bits(ptr noundef %46, i32 noundef %47, i32 noundef 1)
  %48 = load ptr, ptr %6, align 8, !tbaa !68
  %49 = load i32, ptr %10, align 4, !tbaa !45
  %50 = load i32, ptr %7, align 4, !tbaa !45
  %51 = sub nsw i32 %50, 1
  call void @put_bits(ptr noundef %48, i32 noundef %49, i32 noundef %51)
  br label %52

52:                                               ; preds = %45, %36
  call void @llvm.lifetime.end.p0(i64 4, ptr %11) #10
  ret void
}