; Function Attrs: inlinehint nounwind uwtable
define internal fastcc void @set_ur_golomb_jpegls(ptr noundef nonnull captures(none) %0, i32 noundef %1, i32 noundef %2, i32 noundef %3, i32 noundef %4) unnamed_addr #5 {
  %6 = ashr i32 %1, %2
  %7 = add nsw i32 %6, 1
  %8 = icmp slt i32 %7, %3
  %.pre56 = load i32, ptr %0, align 8, !tbaa !40
  %9 = getelementptr inbounds nuw i8, ptr %0, i64 4
  br i1 %8, label %.preheader, label %.preheader42

.preheader42:                                     ; preds = %5
  %10 = icmp sgt i32 %3, 31
  br i1 %10, label %.lr.ph, label %.preheader42.._crit_edge_crit_edge

.preheader42.._crit_edge_crit_edge:               ; preds = %.preheader42
  %.pre = load i32, ptr %9, align 4, !tbaa !39
  br label %._crit_edge

.lr.ph:                                           ; preds = %.preheader42
  %11 = getelementptr inbounds nuw i8, ptr %0, i64 24
  %12 = getelementptr inbounds nuw i8, ptr %0, i64 16
  %.pre52 = load i32, ptr %9, align 4, !tbaa !39
  br label %94

.preheader:                                       ; preds = %5
  %13 = icmp sgt i32 %6, 30
  br i1 %13, label %.lr.ph45, label %.preheader.._crit_edge46_crit_edge

.preheader.._crit_edge46_crit_edge:               ; preds = %.preheader
  %.pre58 = load i32, ptr %9, align 4, !tbaa !39
  br label %._crit_edge46

.lr.ph45:                                         ; preds = %.preheader
  %14 = getelementptr inbounds nuw i8, ptr %0, i64 24
  %15 = getelementptr inbounds nuw i8, ptr %0, i64 16
  %.pre55 = load i32, ptr %9, align 4, !tbaa !39
  br label %16

16:                                               ; preds = %.lr.ph45, %put_bits.exit
  %17 = phi i32 [ %.pre55, %.lr.ph45 ], [ %35, %put_bits.exit ]
  %18 = phi i32 [ %.pre56, %.lr.ph45 ], [ %.026.i.i, %put_bits.exit ]
  %.044 = phi i32 [ %7, %.lr.ph45 ], [ %36, %put_bits.exit ]
  %19 = icmp sgt i32 %17, 31
  br i1 %19, label %20, label %22

20:                                               ; preds = %16
  %21 = shl i32 %18, 31
  br label %put_bits.exit

22:                                               ; preds = %16
  %23 = load ptr, ptr %14, align 8, !tbaa !37
  %24 = load ptr, ptr %15, align 8, !tbaa !38
  %25 = ptrtoint ptr %23 to i64
  %26 = ptrtoint ptr %24 to i64
  %27 = sub i64 %25, %26
  %28 = icmp ugt i64 %27, 3
  br i1 %28, label %29, label %34

29:                                               ; preds = %22
  %30 = shl i32 %18, %17
  %31 = tail call i32 @llvm.bswap.i32(i32 %30)
  store i32 %31, ptr %24, align 1, !tbaa !46
  %32 = load ptr, ptr %15, align 8, !tbaa !38
  %33 = getelementptr inbounds nuw i8, ptr %32, i64 4
  store ptr %33, ptr %15, align 8, !tbaa !38
  br label %put_bits.exit

34:                                               ; preds = %22
  tail call void (ptr, i32, ptr, ...) @av_log(ptr noundef null, i32 noundef 16, ptr noundef nonnull @.str.10) #8
  br label %put_bits.exit

put_bits.exit:                                    ; preds = %29, %34, %20
  %.sink = phi i32 [ -31, %20 ], [ 1, %34 ], [ 1, %29 ]
  %.026.i.i = phi i32 [ %21, %20 ], [ 0, %34 ], [ 0, %29 ]
  %35 = add nsw i32 %17, %.sink
  store i32 %.026.i.i, ptr %0, align 8, !tbaa !40
  store i32 %35, ptr %9, align 4, !tbaa !39
  %36 = add nsw i32 %.044, -31
  %37 = icmp sgt i32 %.044, 62
  br i1 %37, label %16, label %._crit_edge46, !llvm.loop !77

._crit_edge46:                                    ; preds = %put_bits.exit, %.preheader.._crit_edge46_crit_edge
  %38 = phi i32 [ %.pre58, %.preheader.._crit_edge46_crit_edge ], [ %35, %put_bits.exit ]
  %39 = phi i32 [ %.pre56, %.preheader.._crit_edge46_crit_edge ], [ %.026.i.i, %put_bits.exit ]
  %.0.lcssa = phi i32 [ %7, %.preheader.._crit_edge46_crit_edge ], [ %36, %put_bits.exit ]
  %40 = getelementptr inbounds nuw i8, ptr %0, i64 4
  %41 = icmp slt i32 %.0.lcssa, %38
  br i1 %41, label %42, label %46

42:                                               ; preds = %._crit_edge46
  %43 = shl i32 %39, %.0.lcssa
  %44 = or i32 %43, 1
  %45 = sub nsw i32 %38, %.0.lcssa
  br label %put_bits.exit27

46:                                               ; preds = %._crit_edge46
  %47 = getelementptr inbounds nuw i8, ptr %0, i64 24
  %48 = load ptr, ptr %47, align 8, !tbaa !37
  %49 = getelementptr inbounds nuw i8, ptr %0, i64 16
  %50 = load ptr, ptr %49, align 8, !tbaa !38
  %51 = ptrtoint ptr %48 to i64
  %52 = ptrtoint ptr %50 to i64
  %53 = sub i64 %51, %52
  %54 = icmp ugt i64 %53, 3
  br i1 %54, label %55, label %63

55:                                               ; preds = %46
  %56 = shl i32 %39, %38
  %57 = sub nsw i32 %.0.lcssa, %38
  %58 = lshr i32 1, %57
  %59 = or i32 %58, %56
  %60 = tail call i32 @llvm.bswap.i32(i32 %59)
  store i32 %60, ptr %50, align 1, !tbaa !46
  %61 = load ptr, ptr %49, align 8, !tbaa !38
  %62 = getelementptr inbounds nuw i8, ptr %61, i64 4
  store ptr %62, ptr %49, align 8, !tbaa !38
  br label %64

63:                                               ; preds = %46
  tail call void (ptr, i32, ptr, ...) @av_log(ptr noundef null, i32 noundef 16, ptr noundef nonnull @.str.10) #8
  br label %64

64:                                               ; preds = %63, %55
  %reass.sub49 = sub i32 %38, %.0.lcssa
  %65 = add i32 %reass.sub49, 32
  br label %put_bits.exit27

put_bits.exit27:                                  ; preds = %42, %64
  %.026.i.i25 = phi i32 [ %44, %42 ], [ 1, %64 ]
  %.0.i.i26 = phi i32 [ %45, %42 ], [ %65, %64 ]
  store i32 %.026.i.i25, ptr %0, align 8, !tbaa !40
  store i32 %.0.i.i26, ptr %40, align 4, !tbaa !39
  %.not = icmp eq i32 %2, 0
  br i1 %.not, label %170, label %66

66:                                               ; preds = %put_bits.exit27
  %notmask.i.i = shl nsw i32 -1, %2
  %67 = xor i32 %notmask.i.i, -1
  %68 = and i32 %1, %67
  %69 = icmp slt i32 %2, %.0.i.i26
  br i1 %69, label %70, label %74

70:                                               ; preds = %66
  %71 = shl i32 %.026.i.i25, %2
  %72 = or i32 %71, %68
  %73 = sub nsw i32 %.0.i.i26, %2
  br label %put_sbits.exit

74:                                               ; preds = %66
  %75 = getelementptr inbounds nuw i8, ptr %0, i64 24
  %76 = load ptr, ptr %75, align 8, !tbaa !37
  %77 = getelementptr inbounds nuw i8, ptr %0, i64 16
  %78 = load ptr, ptr %77, align 8, !tbaa !38
  %79 = ptrtoint ptr %76 to i64
  %80 = ptrtoint ptr %78 to i64
  %81 = sub i64 %79, %80
  %82 = icmp ugt i64 %81, 3
  br i1 %82, label %83, label %91

83:                                               ; preds = %74
  %84 = shl i32 %.026.i.i25, %.0.i.i26
  %85 = sub nsw i32 %2, %.0.i.i26
  %86 = lshr i32 %68, %85
  %87 = or i32 %86, %84
  %88 = tail call i32 @llvm.bswap.i32(i32 %87)
  store i32 %88, ptr %78, align 1, !tbaa !46
  %89 = load ptr, ptr %77, align 8, !tbaa !38
  %90 = getelementptr inbounds nuw i8, ptr %89, i64 4
  store ptr %90, ptr %77, align 8, !tbaa !38
  br label %92

91:                                               ; preds = %74
  tail call void (ptr, i32, ptr, ...) @av_log(ptr noundef null, i32 noundef 16, ptr noundef nonnull @.str.10) #8
  br label %92

92:                                               ; preds = %91, %83
  %reass.sub50 = sub i32 %.0.i.i26, %2
  %93 = add i32 %reass.sub50, 32
  br label %put_sbits.exit

put_sbits.exit:                                   ; preds = %70, %92
  %.026.i.i.i = phi i32 [ %72, %70 ], [ %68, %92 ]
  %.0.i.i.i = phi i32 [ %73, %70 ], [ %93, %92 ]
  store i32 %.026.i.i.i, ptr %0, align 8, !tbaa !40
  store i32 %.0.i.i.i, ptr %40, align 4, !tbaa !39
  br label %170

94:                                               ; preds = %.lr.ph, %put_bits.exit32
  %95 = phi i32 [ %.pre52, %.lr.ph ], [ %113, %put_bits.exit32 ]
  %96 = phi i32 [ %.pre56, %.lr.ph ], [ %.026.i.i30, %put_bits.exit32 ]
  %.02043 = phi i32 [ %3, %.lr.ph ], [ %114, %put_bits.exit32 ]
  %97 = icmp sgt i32 %95, 31
  br i1 %97, label %98, label %100

98:                                               ; preds = %94
  %99 = shl i32 %96, 31
  br label %put_bits.exit32

100:                                              ; preds = %94
  %101 = load ptr, ptr %11, align 8, !tbaa !37
  %102 = load ptr, ptr %12, align 8, !tbaa !38
  %103 = ptrtoint ptr %101 to i64
  %104 = ptrtoint ptr %102 to i64
  %105 = sub i64 %103, %104
  %106 = icmp ugt i64 %105, 3
  br i1 %106, label %107, label %112

107:                                              ; preds = %100
  %108 = shl i32 %96, %95
  %109 = tail call i32 @llvm.bswap.i32(i32 %108)
  store i32 %109, ptr %102, align 1, !tbaa !46
  %110 = load ptr, ptr %12, align 8, !tbaa !38
  %111 = getelementptr inbounds nuw i8, ptr %110, i64 4
  store ptr %111, ptr %12, align 8, !tbaa !38
  br label %put_bits.exit32

112:                                              ; preds = %100
  tail call void (ptr, i32, ptr, ...) @av_log(ptr noundef null, i32 noundef 16, ptr noundef nonnull @.str.10) #8
  br label %put_bits.exit32

put_bits.exit32:                                  ; preds = %107, %112, %98
  %.sink60 = phi i32 [ -31, %98 ], [ 1, %112 ], [ 1, %107 ]
  %.026.i.i30 = phi i32 [ %99, %98 ], [ 0, %112 ], [ 0, %107 ]
  %113 = add nsw i32 %95, %.sink60
  store i32 %.026.i.i30, ptr %0, align 8, !tbaa !40
  store i32 %113, ptr %9, align 4, !tbaa !39
  %114 = add nsw i32 %.02043, -31
  %115 = icmp sgt i32 %.02043, 62
  br i1 %115, label %94, label %._crit_edge, !llvm.loop !78

._crit_edge:                                      ; preds = %put_bits.exit32, %.preheader42.._crit_edge_crit_edge
  %116 = phi i32 [ %.pre, %.preheader42.._crit_edge_crit_edge ], [ %113, %put_bits.exit32 ]
  %117 = phi i32 [ %.pre56, %.preheader42.._crit_edge_crit_edge ], [ %.026.i.i30, %put_bits.exit32 ]
  %.020.lcssa = phi i32 [ %3, %.preheader42.._crit_edge_crit_edge ], [ %114, %put_bits.exit32 ]
  %118 = getelementptr inbounds nuw i8, ptr %0, i64 4
  %119 = icmp slt i32 %.020.lcssa, %116
  br i1 %119, label %120, label %124

120:                                              ; preds = %._crit_edge
  %121 = shl i32 %117, %.020.lcssa
  %122 = or i32 %121, 1
  %123 = sub nsw i32 %116, %.020.lcssa
  br label %put_bits.exit36

124:                                              ; preds = %._crit_edge
  %125 = getelementptr inbounds nuw i8, ptr %0, i64 24
  %126 = load ptr, ptr %125, align 8, !tbaa !37
  %127 = getelementptr inbounds nuw i8, ptr %0, i64 16
  %128 = load ptr, ptr %127, align 8, !tbaa !38
  %129 = ptrtoint ptr %126 to i64
  %130 = ptrtoint ptr %128 to i64
  %131 = sub i64 %129, %130
  %132 = icmp ugt i64 %131, 3
  br i1 %132, label %133, label %141

133:                                              ; preds = %124
  %134 = shl i32 %117, %116
  %135 = sub nsw i32 %.020.lcssa, %116
  %136 = lshr i32 1, %135
  %137 = or i32 %136, %134
  %138 = tail call i32 @llvm.bswap.i32(i32 %137)
  store i32 %138, ptr %128, align 1, !tbaa !46
  %139 = load ptr, ptr %127, align 8, !tbaa !38
  %140 = getelementptr inbounds nuw i8, ptr %139, i64 4
  store ptr %140, ptr %127, align 8, !tbaa !38
  br label %142

141:                                              ; preds = %124
  tail call void (ptr, i32, ptr, ...) @av_log(ptr noundef null, i32 noundef 16, ptr noundef nonnull @.str.10) #8
  br label %142

142:                                              ; preds = %141, %133
  %reass.sub = sub i32 %116, %.020.lcssa
  %143 = add i32 %reass.sub, 32
  br label %put_bits.exit36

put_bits.exit36:                                  ; preds = %120, %142
  %.026.i.i34 = phi i32 [ %122, %120 ], [ 1, %142 ]
  %.0.i.i35 = phi i32 [ %123, %120 ], [ %143, %142 ]
  store i32 %.026.i.i34, ptr %0, align 8, !tbaa !40
  store i32 %.0.i.i35, ptr %118, align 4, !tbaa !39
  %144 = add nsw i32 %1, -1
  %145 = icmp slt i32 %4, %.0.i.i35
  br i1 %145, label %146, label %150

146:                                              ; preds = %put_bits.exit36
  %147 = shl i32 %.026.i.i34, %4
  %148 = or i32 %147, %144
  %149 = sub nsw i32 %.0.i.i35, %4
  br label %put_bits.exit40

150:                                              ; preds = %put_bits.exit36
  %151 = getelementptr inbounds nuw i8, ptr %0, i64 24
  %152 = load ptr, ptr %151, align 8, !tbaa !37
  %153 = getelementptr inbounds nuw i8, ptr %0, i64 16
  %154 = load ptr, ptr %153, align 8, !tbaa !38
  %155 = ptrtoint ptr %152 to i64
  %156 = ptrtoint ptr %154 to i64
  %157 = sub i64 %155, %156
  %158 = icmp ugt i64 %157, 3
  br i1 %158, label %159, label %167

159:                                              ; preds = %150
  %160 = shl i32 %.026.i.i34, %.0.i.i35
  %161 = sub nsw i32 %4, %.0.i.i35
  %162 = lshr i32 %144, %161
  %163 = or i32 %162, %160
  %164 = tail call i32 @llvm.bswap.i32(i32 %163)
  store i32 %164, ptr %154, align 1, !tbaa !46
  %165 = load ptr, ptr %153, align 8, !tbaa !38
  %166 = getelementptr inbounds nuw i8, ptr %165, i64 4
  store ptr %166, ptr %153, align 8, !tbaa !38
  br label %168

167:                                              ; preds = %150
  tail call void (ptr, i32, ptr, ...) @av_log(ptr noundef null, i32 noundef 16, ptr noundef nonnull @.str.10) #8
  br label %168

168:                                              ; preds = %167, %159
  %reass.sub48 = sub i32 %.0.i.i35, %4
  %169 = add i32 %reass.sub48, 32
  br label %put_bits.exit40

put_bits.exit40:                                  ; preds = %146, %168
  %.026.i.i38 = phi i32 [ %148, %146 ], [ %144, %168 ]
  %.0.i.i39 = phi i32 [ %149, %146 ], [ %169, %168 ]
  store i32 %.026.i.i38, ptr %0, align 8, !tbaa !40
  store i32 %.0.i.i39, ptr %118, align 4, !tbaa !39
  br label %170

170:                                              ; preds = %put_bits.exit27, %put_sbits.exit, %put_bits.exit40
  ret void
}